(ioptparse
Values
p0
(dp1
S'selected_nodes'
p2
(lp3
S'path4:0:11'
p4
aS'path4:0:1'
p5
aS'path4:0:318'
p6
aS'path4:0:64'
p7
aS'path4:0:314'
p8
aS'path4:0:298'
p9
aS'path4:0:26'
p10
aS'path4:0:294'
p11
aS'path4:0:32'
p12
aS'path4:0:290'
p13
aS'path4:0:93'
p14
aS'path4:0:262'
p15
aS'path4:0:250'
p16
aS'path4:0:13'
p17
aS'path4:0:258'
p18
aS'path4:0:144'
p19
aS'path4:0:5'
p20
aS'path4:0:254'
p21
aS'path4:0:123'
p22
aS'path4:0:238'
p23
aS'path4:0:43'
p24
aS'path4:0:237'
p25
aS'path4:0:226'
p26
aS'path4:0:214'
p27
aS'path4:0:313'
p28
aS'path4:0:206'
p29
aS'path4:0:194'
p30
aS'path4:0:186'
p31
aS'path4:0:4'
p32
aS'path4:0:182'
p33
aS'path4:0:176'
p34
aS'path4:0:174'
p35
aS'path4:0:92'
p36
aS'path4:0:305'
p37
aS'path4:0:170'
p38
aS'path4:0:34'
p39
aS'path4:0:235'
p40
aS'path4:0:158'
p41
aS'path4:0:154'
p42
aS'path4:0:270'
p43
aS'path4:0:150'
p44
aS'path4:0:138'
p45
aS'path4:0:134'
p46
aS'path4:0:292'
p47
aS'path4:0:251'
p48
aS'path4:0:126'
p49
aS'path4:0:122'
p50
aS'path4:0:129'
p51
aS'path4:0:110'
p52
aS'path4:0:102'
p53
aS'path4:0:98'
p54
aS'path4:0:24'
p55
aS'path4:0:162'
p56
aS'path4:0:90'
p57
aS'path4:0:300'
p58
aS'path4:0:145'
p59
aS'path4:0:310'
p60
aS'path4:0:82'
p61
aS'path4:0:133'
p62
aS'path4:0:70'
p63
aS'path4:0:253'
p64
aS'path4:0:306'
p65
aS'path4:0:0'
p66
aS'path4:0:242'
p67
aS'path4:0:66'
p68
aS'path4:0:248'
p69
aS'path4:0:233'
p70
aS'path4:0:257'
p71
aS'path4:0:58'
p72
aS'path4:0:50'
p73
aS'path4:0:10'
p74
aS'path4:0:97'
p75
aS'path4:0:46'
p76
aS'path4:0:42'
p77
aS'path4:0:62'
p78
aS'path4:0:54'
p79
aS'path4:0:125'
p80
aS'path4:0:38'
p81
aS'path4:0:218'
p82
aS'path4:0:282'
p83
aS'path4:0:142'
p84
aS'path4:0:111'
p85
aS'path4:0:219'
p86
aS'path4:0:22'
p87
aS'path4:0:113'
p88
aS'path4:0:14'
p89
aS'path4:0:47'
p90
aS'path4:0:188'
p91
aS'path4:0:268'
p92
aS'path4:0:286'
p93
aS'path4:0:234'
p94
aS'path4:0:209'
p95
aS'path4:0:202'
p96
aS'path4:0:65'
p97
aS'path4:0:245'
p98
aS'path4:0:252'
p99
aS'path4:0:30'
p100
aS'path4:0:168'
p101
aS'path4:0:139'
p102
aS'path4:0:88'
p103
aS'path4:0:56'
p104
aS'path4:0:48'
p105
aS'path4:0:15'
p106
aS'path4:0:9'
p107
aS'path4:0:198'
p108
aS'path4:0:216'
p109
aS'path4:0:166'
p110
aS'path4:0:191'
p111
aS'path4:0:293'
p112
aS'path4:0:278'
p113
aS'path4:0:207'
p114
aS'path4:0:264'
p115
aS'path4:0:27'
p116
aS'path4:0:6'
p117
aS'path4:0:40'
p118
aS'path4:0:2'
p119
aS'path4:0:8'
p120
aS'path4:0:240'
p121
aS'path4:0:280'
p122
aS'path4:0:83'
p123
aS'path4:0:304'
p124
aS'path4:0:12'
p125
aS'path4:0:316'
p126
aS'path4:0:222'
p127
aS'path4:0:114'
p128
aS'path4:0:208'
p129
aS'path4:0:120'
p130
aS'path4:0:302'
p131
aS'path4:0:274'
p132
aS'path4:0:94'
p133
aS'path4:0:68'
p134
aS'path4:0:272'
p135
aS'path4:0:227'
p136
aS'path4:0:266'
p137
aS'path4:0:118'
p138
aS'path4:0:204'
p139
aS'path4:0:301'
p140
aS'path4:0:96'
p141
aS'path4:0:18'
p142
aS'path4:0:273'
p143
aS'path4:0:72'
p144
aS'path4:0:315'
p145
aS'path4:0:80'
p146
aS'path4:0:224'
p147
aS'path4:0:192'
p148
aS'path4:0:52'
p149
aS'path4:0:140'
p150
aS'path4:0:127'
p151
aS'path4:0:256'
p152
aS'path4:0:104'
p153
aS'path4:0:16'
p154
aS'path4:0:86'
p155
aS'path4:0:152'
p156
aS'path4:0:180'
p157
aS'path4:0:308'
p158
aS'path4:0:172'
p159
aS'path4:0:44'
p160
aS'path4:0:136'
p161
aS'path4:0:232'
p162
aS'path4:0:45'
p163
aS'path4:0:289'
p164
aS'path4:0:3'
p165
aS'path4:0:196'
p166
aS'path4:0:284'
p167
aS'path4:0:7'
p168
aS'path4:0:288'
p169
aS'path4:0:112'
p170
aS'path4:0:36'
p171
aS'path4:0:190'
p172
aS'path4:0:178'
p173
aS'path4:0:173'
p174
aS'path4:0:78'
p175
aS'path4:0:312'
p176
aS'path4:0:243'
p177
aS'path4:0:28'
p178
aS'path4:0:131'
p179
aS'path4:0:60'
p180
aS'path4:0:76'
p181
aS'path4:0:255'
p182
aS'path4:0:128'
p183
aS'path4:0:200'
p184
aS'path4:0:179'
p185
aS'path4:0:195'
p186
aS'path4:0:20'
p187
aS'path4:0:100'
p188
aS'path4:0:108'
p189
aS'path4:0:246'
p190
aS'path4:0:25'
p191
aS'path4:0:230'
p192
aS'path4:0:99'
p193
aS'path4:0:74'
p194
aS'path4:0:84'
p195
aS'path4:0:167'
p196
aS'path4:0:116'
p197
aS'path4:0:210'
p198
aS'path4:0:276'
p199
aS'path4:0:183'
p200
aS'path4:0:130'
p201
aS'path4:0:181'
p202
aS'path4:0:217'
p203
aS'path4:0:124'
p204
aS'path4:0:157'
p205
aS'path4:0:193'
p206
aS'path4:0:132'
p207
aS'path4:0:223'
p208
aS'path4:0:212'
p209
aS'path4:0:148'
p210
aS'path4:0:156'
p211
aS'path4:0:244'
p212
aS'path4:0:285'
p213
aS'path4:0:164'
p214
aS'path4:0:303'
p215
aS'path4:0:317'
p216
aS'path4:0:106'
p217
aS'path4:0:107'
p218
aS'path4:0:220'
p219
aS'path4:0:228'
p220
aS'path4:0:296'
p221
aS'path4:0:295'
p222
aS'path4:0:236'
p223
aS'path4:0:160'
p224
aS'path4:0:260'
p225
aS'path4:0:184'
p226
aS'path4:0:146'
p227
aS'path4:0:91'
p228
aS'path4:0:17'
p229
aS'path4:0:19'
p230
aS'path4:0:21'
p231
aS'path4:0:23'
p232
aS'path4:0:29'
p233
aS'path4:0:31'
p234
aS'path4:0:33'
p235
aS'path4:0:35'
p236
aS'path4:0:37'
p237
aS'path4:0:39'
p238
aS'path4:0:41'
p239
aS'path4:0:149'
p240
aS'path4:0:49'
p241
aS'path4:0:211'
p242
aS'path4:0:51'
p243
aS'path4:0:53'
p244
aS'path4:0:55'
p245
aS'path4:0:299'
p246
aS'path4:0:57'
p247
aS'path4:0:59'
p248
aS'path4:0:171'
p249
aS'path4:0:61'
p250
aS'path4:0:63'
p251
aS'path4:0:67'
p252
aS'path4:0:69'
p253
aS'path4:0:71'
p254
aS'path4:0:73'
p255
aS'path4:0:213'
p256
aS'path4:0:75'
p257
aS'path4:0:121'
p258
aS'path4:0:77'
p259
aS'path4:0:269'
p260
aS'path4:0:79'
p261
aS'path4:0:105'
p262
aS'path4:0:143'
p263
aS'path4:0:81'
p264
aS'path4:0:103'
p265
aS'path4:0:85'
p266
aS'path4:0:87'
p267
aS'path4:0:89'
p268
aS'path4:0:161'
p269
aS'path4:0:95'
p270
aS'path4:0:291'
p271
aS'path4:0:101'
p272
aS'path4:0:109'
p273
aS'path4:0:115'
p274
aS'path4:0:117'
p275
aS'path4:0:119'
p276
aS'path4:0:135'
p277
aS'path4:0:137'
p278
aS'path4:0:141'
p279
aS'path4:0:147'
p280
aS'path4:0:283'
p281
aS'path4:0:151'
p282
aS'path4:0:275'
p283
aS'path4:0:153'
p284
aS'path4:0:155'
p285
aS'path4:0:159'
p286
aS'path4:0:163'
p287
aS'path4:0:165'
p288
aS'path4:0:169'
p289
aS'path4:0:307'
p290
aS'path4:0:175'
p291
aS'path4:0:177'
p292
aS'path4:0:215'
p293
aS'path4:0:185'
p294
aS'path4:0:187'
p295
aS'path4:0:189'
p296
aS'path4:0:197'
p297
aS'path4:0:199'
p298
aS'path4:0:201'
p299
aS'path4:0:203'
p300
aS'path4:0:205'
p301
aS'path4:0:221'
p302
aS'path4:0:225'
p303
aS'path4:0:229'
p304
aS'path4:0:241'
p305
aS'path4:0:265'
p306
aS'path4:0:231'
p307
aS'path4:0:239'
p308
aS'path4:0:247'
p309
aS'path4:0:249'
p310
aS'path4:0:259'
p311
aS'path4:0:267'
p312
aS'path4:0:261'
p313
aS'path4:0:263'
p314
aS'path4:0:271'
p315
aS'path4:0:277'
p316
aS'path4:0:279'
p317
aS'path4:0:281'
p318
aS'path4:0:287'
p319
aS'path4:0:297'
p320
aS'path4:0:309'
p321
aS'path4:0:311'
p322
aS'path4:0:319'
p323
asS'autoflatten'
p324
I00
sS'filetype'
p325
S'kicad_module'
p326
sS'ids'
p327
(lp328
S'path4'
p329
asS'crop'
p330
I00
sS'debug'
p331
I00
sS'openkicad'
p332
I00
sS'openfactory'
p333
I00
sS'threshold'
p334
F128.0
sS'path'
p335
S'/home/greynaga/Github/Varios/Cylon/Cylon_New_Charly_Plex_6_75mm/Cylon_New_Charly_Plex_6_75mm.pretty'
p336
sS'dpi'
p337
F1200.0
sb.