(ioptparse
Values
p0
(dp1
S'selected_nodes'
p2
(lp3
S'path864:7:56'
p4
aS'path864:7:48'
p5
aS'path864:7:40'
p6
aS'path864:7:32'
p7
aS'path864:7:24'
p8
aS'path864:7:16'
p9
aS'path864:3:79'
p10
aS'path864:7:8'
p11
aS'path864:7:0'
p12
aS'path864:6:24'
p13
aS'path864:6:16'
p14
aS'path864:6:8'
p15
aS'path864:6:0'
p16
aS'path864:5:88'
p17
aS'path864:5:80'
p18
aS'path864:5:72'
p19
aS'path864:5:64'
p20
aS'path864:5:56'
p21
aS'path864:5:48'
p22
aS'path864:5:40'
p23
aS'path864:5:32'
p24
aS'path864:5:24'
p25
aS'path864:5:16'
p26
aS'path864:5:8'
p27
aS'path864:5:0'
p28
aS'path864:4:88'
p29
aS'path864:4:80'
p30
aS'path864:4:72'
p31
aS'path864:4:64'
p32
aS'path864:4:56'
p33
aS'path864:4:48'
p34
aS'path864:4:40'
p35
aS'path864:4:32'
p36
aS'path864:4:24'
p37
aS'path864:4:16'
p38
aS'path864:4:8'
p39
aS'path864:4:0'
p40
aS'path864:3:128'
p41
aS'path864:3:120'
p42
aS'path864:3:112'
p43
aS'path864:3:104'
p44
aS'path864:7:10'
p45
aS'path864:3:96'
p46
aS'path864:3:88'
p47
aS'path864:3:80'
p48
aS'path864:3:72'
p49
aS'path864:3:64'
p50
aS'path864:3:56'
p51
aS'path864:3:48'
p52
aS'path864:3:40'
p53
aS'path864:3:32'
p54
aS'path864:3:24'
p55
aS'path864:3:16'
p56
aS'path864:3:8'
p57
aS'path864:3:0'
p58
aS'path864:2:96'
p59
aS'path864:2:88'
p60
aS'path864:2:80'
p61
aS'path864:2:72'
p62
aS'path864:2:64'
p63
aS'path864:2:56'
p64
aS'path864:2:48'
p65
aS'path864:2:40'
p66
aS'path864:2:32'
p67
aS'path864:2:24'
p68
aS'path864:2:16'
p69
aS'path864:2:8'
p70
aS'path864:2:0'
p71
aS'path864:1:176'
p72
aS'path864:1:168'
p73
aS'path864:1:160'
p74
aS'path864:1:152'
p75
aS'path864:1:144'
p76
aS'path864:1:136'
p77
aS'path864:1:128'
p78
aS'path864:1:120'
p79
aS'path864:1:112'
p80
aS'path864:1:104'
p81
aS'path864:1:96'
p82
aS'path864:1:88'
p83
aS'path864:1:80'
p84
aS'path864:1:72'
p85
aS'path864:1:64'
p86
aS'path864:1:56'
p87
aS'path864:1:48'
p88
aS'path864:1:40'
p89
aS'path864:1:32'
p90
aS'path864:1:24'
p91
aS'path864:1:16'
p92
aS'path864:1:8'
p93
aS'path864:1:0'
p94
aS'path864:0:24'
p95
aS'path864:0:16'
p96
aS'path864:0:8'
p97
aS'path864:0:0'
p98
aS'path864:0:4'
p99
aS'path864:0:12'
p100
aS'path864:0:20'
p101
aS'path864:0:28'
p102
aS'path864:3:49'
p103
aS'path864:1:4'
p104
aS'path864:1:12'
p105
aS'path864:1:20'
p106
aS'path864:1:15'
p107
aS'path864:1:28'
p108
aS'path864:1:36'
p109
aS'path864:1:44'
p110
aS'path864:1:52'
p111
aS'path864:1:60'
p112
aS'path864:1:68'
p113
aS'path864:1:76'
p114
aS'path864:1:84'
p115
aS'path864:1:92'
p116
aS'path864:1:100'
p117
aS'path864:1:108'
p118
aS'path864:1:116'
p119
aS'path864:1:124'
p120
aS'path864:1:132'
p121
aS'path864:1:140'
p122
aS'path864:1:148'
p123
aS'path864:1:156'
p124
aS'path864:1:164'
p125
aS'path864:1:172'
p126
aS'path864:1:180'
p127
aS'path864:2:4'
p128
aS'path864:2:12'
p129
aS'path864:2:20'
p130
aS'path864:2:28'
p131
aS'path864:2:36'
p132
aS'path864:2:44'
p133
aS'path864:2:52'
p134
aS'path864:2:60'
p135
aS'path864:2:68'
p136
aS'path864:2:76'
p137
aS'path864:2:84'
p138
aS'path864:2:92'
p139
aS'path864:2:100'
p140
aS'path864:3:4'
p141
aS'path864:3:12'
p142
aS'path864:3:20'
p143
aS'path864:3:28'
p144
aS'path864:3:36'
p145
aS'path864:3:44'
p146
aS'path864:3:52'
p147
aS'path864:3:60'
p148
aS'path864:3:68'
p149
aS'path864:3:76'
p150
aS'path864:3:84'
p151
aS'path864:3:92'
p152
aS'path864:3:100'
p153
aS'path864:3:108'
p154
aS'path864:3:116'
p155
aS'path864:3:124'
p156
aS'path864:3:132'
p157
aS'path864:4:4'
p158
aS'path864:4:12'
p159
aS'path864:4:20'
p160
aS'path864:4:28'
p161
aS'path864:4:36'
p162
aS'path864:4:44'
p163
aS'path864:4:52'
p164
aS'path864:4:60'
p165
aS'path864:4:68'
p166
aS'path864:4:76'
p167
aS'path864:4:84'
p168
aS'path864:4:92'
p169
aS'path864:5:4'
p170
aS'path864:5:12'
p171
aS'path864:5:20'
p172
aS'path864:5:28'
p173
aS'path864:5:36'
p174
aS'path864:5:44'
p175
aS'path864:5:52'
p176
aS'path864:5:60'
p177
aS'path864:5:68'
p178
aS'path864:5:76'
p179
aS'path864:5:84'
p180
aS'path864:5:92'
p181
aS'path864:6:4'
p182
aS'path864:6:12'
p183
aS'path864:6:20'
p184
aS'path864:6:28'
p185
aS'path864:7:4'
p186
aS'path864:7:12'
p187
aS'path864:7:20'
p188
aS'path864:7:28'
p189
aS'path864:7:36'
p190
aS'path864:7:44'
p191
aS'path864:7:52'
p192
aS'path864:7:60'
p193
aS'path864:0:2'
p194
aS'path864:0:6'
p195
aS'path864:0:10'
p196
aS'path864:0:14'
p197
aS'path864:0:18'
p198
aS'path864:0:22'
p199
aS'path864:0:26'
p200
aS'path864:0:30'
p201
aS'path864:1:2'
p202
aS'path864:1:6'
p203
aS'path864:1:10'
p204
aS'path864:1:14'
p205
aS'path864:1:18'
p206
aS'path864:1:22'
p207
aS'path864:1:26'
p208
aS'path864:1:30'
p209
aS'path864:1:34'
p210
aS'path864:1:38'
p211
aS'path864:1:42'
p212
aS'path864:1:46'
p213
aS'path864:1:50'
p214
aS'path864:1:54'
p215
aS'path864:1:58'
p216
aS'path864:1:62'
p217
aS'path864:1:66'
p218
aS'path864:1:70'
p219
aS'path864:1:74'
p220
aS'path864:1:78'
p221
aS'path864:1:82'
p222
aS'path864:1:86'
p223
aS'path864:1:90'
p224
aS'path864:1:94'
p225
aS'path864:1:98'
p226
aS'path864:1:102'
p227
aS'path864:1:106'
p228
aS'path864:1:110'
p229
aS'path864:1:114'
p230
aS'path864:1:118'
p231
aS'path864:1:122'
p232
aS'path864:1:126'
p233
aS'path864:1:130'
p234
aS'path864:1:134'
p235
aS'path864:1:138'
p236
aS'path864:1:142'
p237
aS'path864:1:146'
p238
aS'path864:1:150'
p239
aS'path864:1:154'
p240
aS'path864:2:85'
p241
aS'path864:1:158'
p242
aS'path864:1:162'
p243
aS'path864:1:166'
p244
aS'path864:1:170'
p245
aS'path864:1:165'
p246
aS'path864:1:174'
p247
aS'path864:1:178'
p248
aS'path864:1:182'
p249
aS'path864:2:2'
p250
aS'path864:2:6'
p251
aS'path864:2:10'
p252
aS'path864:2:14'
p253
aS'path864:2:18'
p254
aS'path864:2:22'
p255
aS'path864:3:62'
p256
aS'path864:2:26'
p257
aS'path864:2:30'
p258
aS'path864:2:34'
p259
aS'path864:2:38'
p260
aS'path864:2:42'
p261
aS'path864:2:46'
p262
aS'path864:2:50'
p263
aS'path864:2:54'
p264
aS'path864:2:58'
p265
aS'path864:2:62'
p266
aS'path864:2:66'
p267
aS'path864:2:70'
p268
aS'path864:2:74'
p269
aS'path864:2:78'
p270
aS'path864:5:95'
p271
aS'path864:2:82'
p272
aS'path864:2:86'
p273
aS'path864:2:90'
p274
aS'path864:2:94'
p275
aS'path864:2:98'
p276
aS'path864:2:102'
p277
aS'path864:3:2'
p278
aS'path864:3:6'
p279
aS'path864:3:10'
p280
aS'path864:3:14'
p281
aS'path864:3:18'
p282
aS'path864:3:22'
p283
aS'path864:3:26'
p284
aS'path864:3:30'
p285
aS'path864:3:34'
p286
aS'path864:3:38'
p287
aS'path864:3:42'
p288
aS'path864:3:46'
p289
aS'path864:3:50'
p290
aS'path864:3:54'
p291
aS'path864:3:58'
p292
aS'path864:3:66'
p293
aS'path864:3:70'
p294
aS'path864:3:74'
p295
aS'path864:3:78'
p296
aS'path864:3:82'
p297
aS'path864:3:86'
p298
aS'path864:3:90'
p299
aS'path864:3:94'
p300
aS'path864:3:98'
p301
aS'path864:3:102'
p302
aS'path864:3:106'
p303
aS'path864:3:110'
p304
aS'path864:3:114'
p305
aS'path864:3:118'
p306
aS'path864:3:122'
p307
aS'path864:1:153'
p308
aS'path864:3:126'
p309
aS'path864:3:130'
p310
aS'path864:3:134'
p311
aS'path864:4:2'
p312
aS'path864:4:6'
p313
aS'path864:4:10'
p314
aS'path864:4:14'
p315
aS'path864:4:18'
p316
aS'path864:4:22'
p317
aS'path864:4:26'
p318
aS'path864:4:30'
p319
aS'path864:4:34'
p320
aS'path864:4:38'
p321
aS'path864:4:42'
p322
aS'path864:4:46'
p323
aS'path864:4:50'
p324
aS'path864:1:103'
p325
aS'path864:7:31'
p326
aS'path864:4:54'
p327
aS'path864:4:58'
p328
aS'path864:4:62'
p329
aS'path864:4:66'
p330
aS'path864:4:70'
p331
aS'path864:4:74'
p332
aS'path864:3:5'
p333
aS'path864:4:78'
p334
aS'path864:4:82'
p335
aS'path864:4:86'
p336
aS'path864:4:90'
p337
aS'path864:4:94'
p338
aS'path864:5:2'
p339
aS'path864:5:6'
p340
aS'path864:5:10'
p341
aS'path864:5:14'
p342
aS'path864:5:18'
p343
aS'path864:5:22'
p344
aS'path864:5:26'
p345
aS'path864:4:5'
p346
aS'path864:5:30'
p347
aS'path864:5:34'
p348
aS'path864:5:38'
p349
aS'path864:5:42'
p350
aS'path864:5:46'
p351
aS'path864:5:50'
p352
aS'path864:5:54'
p353
aS'path864:5:58'
p354
aS'path864:5:62'
p355
aS'path864:5:66'
p356
aS'path864:5:70'
p357
aS'path864:5:74'
p358
aS'path864:5:78'
p359
aS'path864:5:82'
p360
aS'path864:5:86'
p361
aS'path864:5:90'
p362
aS'path864:5:94'
p363
aS'path864:6:2'
p364
aS'path864:6:6'
p365
aS'path864:6:10'
p366
aS'path864:6:14'
p367
aS'path864:6:18'
p368
aS'path864:6:22'
p369
aS'path864:6:26'
p370
aS'path864:6:30'
p371
aS'path864:7:2'
p372
aS'path864:7:6'
p373
aS'path864:7:14'
p374
aS'path864:7:18'
p375
aS'path864:7:22'
p376
aS'path864:7:26'
p377
aS'path864:7:30'
p378
aS'path864:7:34'
p379
aS'path864:7:38'
p380
aS'path864:7:42'
p381
aS'path864:7:46'
p382
aS'path864:7:50'
p383
aS'path864:7:54'
p384
aS'path864:7:58'
p385
aS'path864:7:62'
p386
aS'path864:0:1'
p387
aS'path864:2:91'
p388
aS'path864:0:3'
p389
aS'path864:0:5'
p390
aS'path864:0:7'
p391
aS'path864:0:9'
p392
aS'path864:0:11'
p393
aS'path864:0:13'
p394
aS'path864:0:15'
p395
aS'path864:0:17'
p396
aS'path864:0:19'
p397
aS'path864:0:21'
p398
aS'path864:0:23'
p399
aS'path864:0:25'
p400
aS'path864:0:27'
p401
aS'path864:0:29'
p402
aS'path864:0:31'
p403
aS'path864:1:1'
p404
aS'path864:1:3'
p405
aS'path864:1:5'
p406
aS'path864:1:7'
p407
aS'path864:1:9'
p408
aS'path864:1:11'
p409
aS'path864:1:13'
p410
aS'path864:1:17'
p411
aS'path864:1:19'
p412
aS'path864:1:21'
p413
aS'path864:1:23'
p414
aS'path864:1:25'
p415
aS'path864:1:27'
p416
aS'path864:1:29'
p417
aS'path864:1:31'
p418
aS'path864:1:33'
p419
aS'path864:1:35'
p420
aS'path864:1:37'
p421
aS'path864:1:39'
p422
aS'path864:1:41'
p423
aS'path864:1:43'
p424
aS'path864:1:45'
p425
aS'path864:1:47'
p426
aS'path864:7:27'
p427
aS'path864:1:49'
p428
aS'path864:1:51'
p429
aS'path864:1:53'
p430
aS'path864:1:55'
p431
aS'path864:1:57'
p432
aS'path864:1:59'
p433
aS'path864:1:61'
p434
aS'path864:1:63'
p435
aS'path864:1:65'
p436
aS'path864:1:67'
p437
aS'path864:1:69'
p438
aS'path864:1:71'
p439
aS'path864:1:73'
p440
aS'path864:1:75'
p441
aS'path864:1:77'
p442
aS'path864:1:79'
p443
aS'path864:1:81'
p444
aS'path864:1:83'
p445
aS'path864:1:85'
p446
aS'path864:1:87'
p447
aS'path864:1:89'
p448
aS'path864:1:91'
p449
aS'path864:1:93'
p450
aS'path864:1:95'
p451
aS'path864:1:97'
p452
aS'path864:1:99'
p453
aS'path864:1:101'
p454
aS'path864:1:105'
p455
aS'path864:7:33'
p456
aS'path864:1:107'
p457
aS'path864:1:109'
p458
aS'path864:1:111'
p459
aS'path864:1:113'
p460
aS'path864:1:115'
p461
aS'path864:1:117'
p462
aS'path864:1:119'
p463
aS'path864:1:121'
p464
aS'path864:1:123'
p465
aS'path864:1:125'
p466
aS'path864:1:127'
p467
aS'path864:1:129'
p468
aS'path864:1:131'
p469
aS'path864:1:133'
p470
aS'path864:1:135'
p471
aS'path864:1:137'
p472
aS'path864:1:139'
p473
aS'path864:1:141'
p474
aS'path864:1:143'
p475
aS'path864:1:145'
p476
aS'path864:1:147'
p477
aS'path864:1:149'
p478
aS'path864:1:151'
p479
aS'path864:1:155'
p480
aS'path864:1:157'
p481
aS'path864:1:159'
p482
aS'path864:1:161'
p483
aS'path864:1:163'
p484
aS'path864:1:167'
p485
aS'path864:1:169'
p486
aS'path864:1:171'
p487
aS'path864:2:23'
p488
aS'path864:1:173'
p489
aS'path864:1:175'
p490
aS'path864:1:177'
p491
aS'path864:1:179'
p492
aS'path864:1:181'
p493
aS'path864:1:183'
p494
aS'path864:2:1'
p495
aS'path864:2:3'
p496
aS'path864:2:5'
p497
aS'path864:2:7'
p498
aS'path864:2:9'
p499
aS'path864:2:11'
p500
aS'path864:2:13'
p501
aS'path864:2:15'
p502
aS'path864:2:17'
p503
aS'path864:2:19'
p504
aS'path864:2:21'
p505
aS'path864:2:25'
p506
aS'path864:2:27'
p507
aS'path864:2:29'
p508
aS'path864:2:31'
p509
aS'path864:2:33'
p510
aS'path864:2:35'
p511
aS'path864:2:37'
p512
aS'path864:2:39'
p513
aS'path864:2:41'
p514
aS'path864:2:43'
p515
aS'path864:2:45'
p516
aS'path864:2:47'
p517
aS'path864:2:49'
p518
aS'path864:4:7'
p519
aS'path864:2:51'
p520
aS'path864:2:53'
p521
aS'path864:2:55'
p522
aS'path864:2:57'
p523
aS'path864:2:59'
p524
aS'path864:2:61'
p525
aS'path864:2:63'
p526
aS'path864:2:65'
p527
aS'path864:2:67'
p528
aS'path864:2:69'
p529
aS'path864:2:71'
p530
aS'path864:2:73'
p531
aS'path864:2:75'
p532
aS'path864:2:77'
p533
aS'path864:2:79'
p534
aS'path864:2:81'
p535
aS'path864:2:83'
p536
aS'path864:2:87'
p537
aS'path864:2:89'
p538
aS'path864:2:93'
p539
aS'path864:2:95'
p540
aS'path864:2:97'
p541
aS'path864:2:99'
p542
aS'path864:2:101'
p543
aS'path864:2:103'
p544
aS'path864:3:1'
p545
aS'path864:3:3'
p546
aS'path864:3:7'
p547
aS'path864:3:9'
p548
aS'path864:3:11'
p549
aS'path864:3:13'
p550
aS'path864:3:15'
p551
aS'path864:3:17'
p552
aS'path864:3:19'
p553
aS'path864:3:21'
p554
aS'path864:3:23'
p555
aS'path864:3:25'
p556
aS'path864:3:27'
p557
aS'path864:3:29'
p558
aS'path864:3:31'
p559
aS'path864:3:33'
p560
aS'path864:3:35'
p561
aS'path864:3:37'
p562
aS'path864:3:39'
p563
aS'path864:3:41'
p564
aS'path864:3:55'
p565
aS'path864:3:43'
p566
aS'path864:3:45'
p567
aS'path864:3:47'
p568
aS'path864:3:51'
p569
aS'path864:3:53'
p570
aS'path864:3:57'
p571
aS'path864:3:59'
p572
aS'path864:3:61'
p573
aS'path864:3:63'
p574
aS'path864:3:65'
p575
aS'path864:3:67'
p576
aS'path864:3:69'
p577
aS'path864:3:71'
p578
aS'path864:3:73'
p579
aS'path864:3:75'
p580
aS'path864:3:77'
p581
aS'path864:3:81'
p582
aS'path864:3:83'
p583
aS'path864:3:85'
p584
aS'path864:3:87'
p585
aS'path864:3:89'
p586
aS'path864:3:91'
p587
aS'path864:3:93'
p588
aS'path864:3:95'
p589
aS'path864:3:97'
p590
aS'path864:3:99'
p591
aS'path864:3:101'
p592
aS'path864:3:103'
p593
aS'path864:3:105'
p594
aS'path864:3:107'
p595
aS'path864:3:109'
p596
aS'path864:3:111'
p597
aS'path864:3:113'
p598
aS'path864:3:115'
p599
aS'path864:3:117'
p600
aS'path864:3:119'
p601
aS'path864:3:121'
p602
aS'path864:3:123'
p603
aS'path864:3:125'
p604
aS'path864:3:127'
p605
aS'path864:3:129'
p606
aS'path864:3:131'
p607
aS'path864:3:133'
p608
aS'path864:3:135'
p609
aS'path864:4:1'
p610
aS'path864:4:3'
p611
aS'path864:4:9'
p612
aS'path864:4:11'
p613
aS'path864:4:13'
p614
aS'path864:4:15'
p615
aS'path864:4:17'
p616
aS'path864:4:19'
p617
aS'path864:4:21'
p618
aS'path864:4:23'
p619
aS'path864:4:25'
p620
aS'path864:4:27'
p621
aS'path864:4:29'
p622
aS'path864:4:31'
p623
aS'path864:4:33'
p624
aS'path864:4:35'
p625
aS'path864:4:37'
p626
aS'path864:4:39'
p627
aS'path864:4:41'
p628
aS'path864:4:43'
p629
aS'path864:4:45'
p630
aS'path864:4:47'
p631
aS'path864:4:49'
p632
aS'path864:4:51'
p633
aS'path864:4:53'
p634
aS'path864:4:55'
p635
aS'path864:4:57'
p636
aS'path864:4:59'
p637
aS'path864:4:61'
p638
aS'path864:4:63'
p639
aS'path864:4:65'
p640
aS'path864:4:67'
p641
aS'path864:4:69'
p642
aS'path864:4:71'
p643
aS'path864:4:73'
p644
aS'path864:4:75'
p645
aS'path864:4:77'
p646
aS'path864:4:79'
p647
aS'path864:4:81'
p648
aS'path864:4:83'
p649
aS'path864:4:85'
p650
aS'path864:7:3'
p651
aS'path864:4:87'
p652
aS'path864:4:89'
p653
aS'path864:4:91'
p654
aS'path864:4:93'
p655
aS'path864:4:95'
p656
aS'path864:5:1'
p657
aS'path864:5:3'
p658
aS'path864:5:5'
p659
aS'path864:5:7'
p660
aS'path864:5:9'
p661
aS'path864:5:11'
p662
aS'path864:5:13'
p663
aS'path864:5:15'
p664
aS'path864:5:17'
p665
aS'path864:5:19'
p666
aS'path864:5:21'
p667
aS'path864:5:23'
p668
aS'path864:5:25'
p669
aS'path864:5:27'
p670
aS'path864:5:29'
p671
aS'path864:5:31'
p672
aS'path864:5:33'
p673
aS'path864:5:35'
p674
aS'path864:5:37'
p675
aS'path864:5:39'
p676
aS'path864:5:41'
p677
aS'path864:5:43'
p678
aS'path864:5:45'
p679
aS'path864:5:47'
p680
aS'path864:5:49'
p681
aS'path864:5:51'
p682
aS'path864:5:53'
p683
aS'path864:5:55'
p684
aS'path864:5:57'
p685
aS'path864:5:59'
p686
aS'path864:5:61'
p687
aS'path864:5:63'
p688
aS'path864:5:65'
p689
aS'path864:5:67'
p690
aS'path864:5:69'
p691
aS'path864:5:71'
p692
aS'path864:5:73'
p693
aS'path864:5:75'
p694
aS'path864:5:77'
p695
aS'path864:5:79'
p696
aS'path864:5:81'
p697
aS'path864:5:83'
p698
aS'path864:5:85'
p699
aS'path864:5:87'
p700
aS'path864:5:89'
p701
aS'path864:5:91'
p702
aS'path864:5:93'
p703
aS'path864:6:1'
p704
aS'path864:6:3'
p705
aS'path864:6:5'
p706
aS'path864:6:7'
p707
aS'path864:6:9'
p708
aS'path864:6:11'
p709
aS'path864:6:13'
p710
aS'path864:6:15'
p711
aS'path864:6:17'
p712
aS'path864:6:19'
p713
aS'path864:6:21'
p714
aS'path864:6:23'
p715
aS'path864:6:25'
p716
aS'path864:6:27'
p717
aS'path864:6:29'
p718
aS'path864:6:31'
p719
aS'path864:7:1'
p720
aS'path864:7:5'
p721
aS'path864:7:7'
p722
aS'path864:7:9'
p723
aS'path864:7:11'
p724
aS'path864:7:13'
p725
aS'path864:7:15'
p726
aS'path864:7:17'
p727
aS'path864:7:19'
p728
aS'path864:7:21'
p729
aS'path864:7:23'
p730
aS'path864:7:25'
p731
aS'path864:7:29'
p732
aS'path864:7:35'
p733
aS'path864:7:37'
p734
aS'path864:7:39'
p735
aS'path864:7:41'
p736
aS'path864:7:43'
p737
aS'path864:7:45'
p738
aS'path864:7:47'
p739
aS'path864:7:49'
p740
aS'path864:7:51'
p741
aS'path864:7:53'
p742
aS'path864:7:55'
p743
aS'path864:7:57'
p744
aS'path864:7:59'
p745
aS'path864:7:61'
p746
aS'path864:7:63'
p747
asS'autoflatten'
p748
I01
sS'filetype'
p749
S'kicad_module'
p750
sS'ids'
p751
(lp752
S'path864'
p753
asS'crop'
p754
I00
sS'debug'
p755
I00
sS'openkicad'
p756
I00
sS'openfactory'
p757
I00
sS'threshold'
p758
F5.0
sS'path'
p759
S'/home/greynaga/Github/Varios/Samd11/Breakout_02/SamD11_Breakout.pretty'
p760
sS'dpi'
p761
F1200.0
sb.