(ioptparse
Values
p0
(dp1
S'selected_nodes'
p2
(lp3
S'path28559:19:30'
p4
aS'path28559:19:3'
p5
aS'path28559:19:4'
p6
aS'path28559:14:11'
p7
aS'path28559:23:11'
p8
asS'autoflatten'
p9
I00
sS'filetype'
p10
S'kicad_module'
p11
sS'ids'
p12
(lp13
S'path28559'
p14
asS'crop'
p15
I00
sS'debug'
p16
I00
sS'openkicad'
p17
I00
sS'openfactory'
p18
I00
sS'threshold'
p19
F128.0
sS'path'
p20
S'/home/greynaga/Github/Varios/Escorni_Badge/002-Nano/002-Nano.pretty'
p21
sS'dpi'
p22
F1200.0
sb.