(ioptparse
Values
p0
(dp1
S'selected_nodes'
p2
(lp3
S'path892:0:912'
p4
aS'path892:0:911'
p5
aS'path892:0:909'
p6
aS'path892:0:906'
p7
aS'path892:0:904'
p8
aS'path892:0:903'
p9
aS'path892:0:902'
p10
aS'path892:0:901'
p11
aS'path892:0:900'
p12
aS'path892:0:899'
p13
aS'path892:0:898'
p14
aS'path892:0:897'
p15
aS'path892:0:887'
p16
aS'path892:0:885'
p17
aS'path892:0:884'
p18
aS'path892:0:883'
p19
aS'path892:0:882'
p20
aS'path892:0:876'
p21
aS'path892:0:875'
p22
aS'path892:0:874'
p23
aS'path892:0:873'
p24
aS'path892:0:872'
p25
aS'path892:0:871'
p26
aS'path892:0:870'
p27
aS'path892:0:868'
p28
aS'path892:0:867'
p29
aS'path892:0:866'
p30
aS'path892:0:865'
p31
aS'path892:0:864'
p32
aS'path892:0:863'
p33
aS'path892:0:862'
p34
aS'path892:0:861'
p35
aS'path892:0:860'
p36
aS'path892:0:859'
p37
aS'path892:0:858'
p38
aS'path892:0:857'
p39
aS'path892:0:856'
p40
aS'path892:0:854'
p41
aS'path892:0:853'
p42
aS'path892:0:852'
p43
aS'path892:0:851'
p44
aS'path892:0:850'
p45
aS'path892:0:846'
p46
aS'path892:0:845'
p47
aS'path892:0:844'
p48
aS'path892:0:841'
p49
aS'path892:0:840'
p50
aS'path892:0:839'
p51
aS'path892:0:836'
p52
aS'path892:0:832'
p53
aS'path892:0:881'
p54
aS'path892:0:831'
p55
aS'path892:0:880'
p56
aS'path892:0:830'
p57
aS'path892:0:824'
p58
aS'path892:0:837'
p59
aS'path892:0:816'
p60
aS'path892:0:815'
p61
aS'path892:0:814'
p62
aS'path892:0:813'
p63
aS'path892:0:812'
p64
aS'path892:0:810'
p65
aS'path892:0:809'
p66
aS'path892:0:808'
p67
aS'path892:0:805'
p68
aS'path892:0:804'
p69
aS'path892:0:800'
p70
aS'path892:0:799'
p71
aS'path892:0:798'
p72
aS'path892:0:797'
p73
aS'path892:0:796'
p74
aS'path892:0:795'
p75
aS'path892:0:794'
p76
aS'path892:0:788'
p77
aS'path892:0:787'
p78
aS'path892:0:786'
p79
aS'path892:0:785'
p80
aS'path892:0:776'
p81
aS'path892:0:775'
p82
aS'path892:0:774'
p83
aS'path892:0:770'
p84
aS'path892:0:769'
p85
aS'path892:0:768'
p86
aS'path892:0:767'
p87
aS'path892:0:766'
p88
aS'path892:0:765'
p89
aS'path892:0:763'
p90
aS'path892:0:762'
p91
aS'path892:0:756'
p92
aS'path892:0:755'
p93
aS'path892:0:754'
p94
aS'path892:0:743'
p95
aS'path892:0:738'
p96
aS'path892:0:737'
p97
aS'path892:0:736'
p98
aS'path892:0:735'
p99
aS'path892:0:734'
p100
aS'path892:0:733'
p101
aS'path892:0:729'
p102
aS'path892:0:726'
p103
aS'path892:0:724'
p104
aS'path892:0:721'
p105
aS'path892:0:720'
p106
aS'path892:0:719'
p107
aS'path892:0:716'
p108
aS'path892:0:715'
p109
aS'path892:0:711'
p110
aS'path892:0:710'
p111
aS'path892:0:709'
p112
aS'path892:0:708'
p113
aS'path892:0:707'
p114
aS'path892:0:706'
p115
aS'path892:0:855'
p116
aS'path892:0:834'
p117
aS'path892:0:705'
p118
aS'path892:0:833'
p119
aS'path892:0:704'
p120
aS'path892:0:702'
p121
aS'path892:0:701'
p122
aS'path892:0:700'
p123
aS'path892:0:806'
p124
aS'path892:0:698'
p125
aS'path892:0:697'
p126
aS'path892:0:695'
p127
aS'path892:0:694'
p128
aS'path892:0:693'
p129
aS'path892:0:692'
p130
aS'path892:0:820'
p131
aS'path892:0:691'
p132
aS'path892:0:690'
p133
aS'path892:0:689'
p134
aS'path892:0:688'
p135
aS'path892:0:828'
p136
aS'path892:0:686'
p137
aS'path892:0:680'
p138
aS'path892:0:679'
p139
aS'path892:0:678'
p140
aS'path892:0:677'
p141
aS'path892:0:676'
p142
aS'path892:0:675'
p143
aS'path892:0:895'
p144
aS'path892:0:703'
p145
aS'path892:0:674'
p146
aS'path892:0:894'
p147
aS'path892:0:802'
p148
aS'path892:0:673'
p149
aS'path892:0:893'
p150
aS'path892:0:672'
p151
aS'path892:0:669'
p152
aS'path892:0:662'
p153
aS'path892:0:658'
p154
aS'path892:0:657'
p155
aS'path892:0:656'
p156
aS'path892:0:653'
p157
aS'path892:0:652'
p158
aS'path892:0:651'
p159
aS'path892:0:650'
p160
aS'path892:0:648'
p161
aS'path892:0:645'
p162
aS'path892:0:644'
p163
aS'path892:0:643'
p164
aS'path892:0:869'
p165
aS'path892:0:640'
p166
aS'path892:0:639'
p167
aS'path892:0:636'
p168
aS'path892:0:631'
p169
aS'path892:0:627'
p170
aS'path892:0:905'
p171
aS'path892:0:626'
p172
aS'path892:0:625'
p173
aS'path892:0:624'
p174
aS'path892:0:623'
p175
aS'path892:0:730'
p176
aS'path892:0:622'
p177
aS'path892:0:621'
p178
aS'path892:0:620'
p179
aS'path892:0:896'
p180
aS'path892:0:617'
p181
aS'path892:0:745'
p182
aS'path892:0:616'
p183
aS'path892:0:614'
p184
aS'path892:0:892'
p185
aS'path892:0:613'
p186
aS'path892:0:612'
p187
aS'path892:0:611'
p188
aS'path892:0:607'
p189
aS'path892:0:606'
p190
aS'path892:0:605'
p191
aS'path892:0:604'
p192
aS'path892:0:723'
p193
aS'path892:0:602'
p194
aS'path892:0:600'
p195
aS'path892:0:597'
p196
aS'path892:0:596'
p197
aS'path892:0:595'
p198
aS'path892:0:594'
p199
aS'path892:0:764'
p200
aS'path892:0:593'
p201
aS'path892:0:591'
p202
aS'path892:0:590'
p203
aS'path892:0:589'
p204
aS'path892:0:585'
p205
aS'path892:0:584'
p206
aS'path892:0:671'
p207
aS'path892:0:583'
p208
aS'path892:0:803'
p209
aS'path892:0:582'
p210
aS'path892:0:581'
p211
aS'path892:0:580'
p212
aS'path892:0:578'
p213
aS'path892:0:577'
p214
aS'path892:0:576'
p215
aS'path892:0:575'
p216
aS'path892:0:574'
p217
aS'path892:0:586'
p218
aS'path892:0:573'
p219
aS'path892:0:572'
p220
aS'path892:0:571'
p221
aS'path892:0:641'
p222
aS'path892:0:570'
p223
aS'path892:0:877'
p224
aS'path892:0:564'
p225
aS'path892:0:842'
p226
aS'path892:0:563'
p227
aS'path892:0:562'
p228
aS'path892:0:561'
p229
aS'path892:0:558'
p230
aS'path892:0:744'
p231
aS'path892:0:615'
p232
aS'path892:0:555'
p233
aS'path892:0:635'
p234
aS'path892:0:554'
p235
aS'path892:0:634'
p236
aS'path892:0:553'
p237
aS'path892:0:633'
p238
aS'path892:0:552'
p239
aS'path892:0:632'
p240
aS'path892:0:551'
p241
aS'path892:0:550'
p242
aS'path892:0:588'
p243
aS'path892:0:549'
p244
aS'path892:0:587'
p245
aS'path892:0:548'
p246
aS'path892:0:547'
p247
aS'path892:0:546'
p248
aS'path892:0:655'
p249
aS'path892:0:545'
p250
aS'path892:0:654'
p251
aS'path892:0:544'
p252
aS'path892:0:543'
p253
aS'path892:0:542'
p254
aS'path892:0:538'
p255
aS'path892:0:537'
p256
aS'path892:0:536'
p257
aS'path892:0:535'
p258
aS'path892:0:534'
p259
aS'path892:0:533'
p260
aS'path892:0:532'
p261
aS'path892:0:531'
p262
aS'path892:0:530'
p263
aS'path892:0:529'
p264
aS'path892:0:528'
p265
aS'path892:0:527'
p266
aS'path892:0:526'
p267
aS'path892:0:525'
p268
aS'path892:0:524'
p269
aS'path892:0:670'
p270
aS'path892:0:522'
p271
aS'path892:0:521'
p272
aS'path892:0:668'
p273
aS'path892:0:520'
p274
aS'path892:0:579'
p275
aS'path892:0:519'
p276
aS'path892:0:599'
p277
aS'path892:0:518'
p278
aS'path892:0:598'
p279
aS'path892:0:517'
p280
aS'path892:0:793'
p281
aS'path892:0:516'
p282
aS'path892:0:667'
p283
aS'path892:0:515'
p284
aS'path892:0:512'
p285
aS'path892:0:511'
p286
aS'path892:0:510'
p287
aS'path892:0:505'
p288
aS'path892:0:504'
p289
aS'path892:0:502'
p290
aS'path892:0:501'
p291
aS'path892:0:500'
p292
aS'path892:0:497'
p293
aS'path892:0:495'
p294
aS'path892:0:494'
p295
aS'path892:0:488'
p296
aS'path892:0:487'
p297
aS'path892:0:484'
p298
aS'path892:0:843'
p299
aS'path892:0:483'
p300
aS'path892:0:480'
p301
aS'path892:0:479'
p302
aS'path892:0:838'
p303
aS'path892:0:478'
p304
aS'path892:0:712'
p305
aS'path892:0:473'
p306
aS'path892:0:470'
p307
aS'path892:0:879'
p308
aS'path892:0:829'
p309
aS'path892:0:469'
p310
aS'path892:0:466'
p311
aS'path892:0:462'
p312
aS'path892:0:891'
p313
aS'path892:0:460'
p314
aS'path892:0:890'
p315
aS'path892:0:761'
p316
aS'path892:0:459'
p317
aS'path892:0:889'
p318
aS'path892:0:458'
p319
aS'path892:0:888'
p320
aS'path892:0:638'
p321
aS'path892:0:457'
p322
aS'path892:0:566'
p323
aS'path892:0:456'
p324
aS'path892:0:565'
p325
aS'path892:0:455'
p326
aS'path892:0:453'
p327
aS'path892:0:452'
p328
aS'path892:0:811'
p329
aS'path892:0:451'
p330
aS'path892:0:752'
p331
aS'path892:0:610'
p332
aS'path892:0:450'
p333
aS'path892:0:751'
p334
aS'path892:0:609'
p335
aS'path892:0:449'
p336
aS'path892:0:750'
p337
aS'path892:0:448'
p338
aS'path892:0:718'
p339
aS'path892:0:445'
p340
aS'path892:0:717'
p341
aS'path892:0:444'
p342
aS'path892:0:443'
p343
aS'path892:0:823'
p344
aS'path892:0:442'
p345
aS'path892:0:822'
p346
aS'path892:0:441'
p347
aS'path892:0:821'
p348
aS'path892:0:440'
p349
aS'path892:0:439'
p350
aS'path892:0:438'
p351
aS'path892:0:437'
p352
aS'path892:0:436'
p353
aS'path892:0:435'
p354
aS'path892:0:434'
p355
aS'path892:0:433'
p356
aS'path892:0:432'
p357
aS'path892:0:431'
p358
aS'path892:0:886'
p359
aS'path892:0:430'
p360
aS'path892:0:429'
p361
aS'path892:0:428'
p362
aS'path892:0:427'
p363
aS'path892:0:426'
p364
aS'path892:0:425'
p365
aS'path892:0:684'
p366
aS'path892:0:424'
p367
aS'path892:0:683'
p368
aS'path892:0:423'
p369
aS'path892:0:421'
p370
aS'path892:0:732'
p371
aS'path892:0:420'
p372
aS'path892:0:731'
p373
aS'path892:0:419'
p374
aS'path892:0:630'
p375
aS'path892:0:418'
p376
aS'path892:0:728'
p377
aS'path892:0:416'
p378
aS'path892:0:727'
p379
aS'path892:0:415'
p380
aS'path892:0:414'
p381
aS'path892:0:746'
p382
aS'path892:0:413'
p383
aS'path892:0:412'
p384
aS'path892:0:411'
p385
aS'path892:0:410'
p386
aS'path892:0:409'
p387
aS'path892:0:408'
p388
aS'path892:0:827'
p389
aS'path892:0:685'
p390
aS'path892:0:407'
p391
aS'path892:0:826'
p392
aS'path892:0:406'
p393
aS'path892:0:825'
p394
aS'path892:0:405'
p395
aS'path892:0:404'
p396
aS'path892:0:403'
p397
aS'path892:0:402'
p398
aS'path892:0:401'
p399
aS'path892:0:400'
p400
aS'path892:0:399'
p401
aS'path892:0:568'
p402
aS'path892:0:398'
p403
aS'path892:0:608'
p404
aS'path892:0:396'
p405
aS'path892:0:907'
p406
aS'path892:0:395'
p407
aS'path892:0:394'
p408
aS'path892:0:393'
p409
aS'path892:0:392'
p410
aS'path892:0:391'
p411
aS'path892:0:390'
p412
aS'path892:0:560'
p413
aS'path892:0:389'
p414
aS'path892:0:559'
p415
aS'path892:0:388'
p416
aS'path892:0:387'
p417
aS'path892:0:386'
p418
aS'path892:0:385'
p419
aS'path892:0:384'
p420
aS'path892:0:383'
p421
aS'path892:0:382'
p422
aS'path892:0:757'
p423
aS'path892:0:379'
p424
aS'path892:0:378'
p425
aS'path892:0:377'
p426
aS'path892:0:376'
p427
aS'path892:0:373'
p428
aS'path892:0:748'
p429
aS'path892:0:370'
p430
aS'path892:0:369'
p431
aS'path892:0:368'
p432
aS'path892:0:367'
p433
aS'path892:0:366'
p434
aS'path892:0:365'
p435
aS'path892:0:503'
p436
aS'path892:0:364'
p437
aS'path892:0:363'
p438
aS'path892:0:362'
p439
aS'path892:0:360'
p440
aS'path892:0:359'
p441
aS'path892:0:358'
p442
aS'path892:0:357'
p443
aS'path892:0:356'
p444
aS'path892:0:355'
p445
aS'path892:0:350'
p446
aS'path892:0:349'
p447
aS'path892:0:348'
p448
aS'path892:0:347'
p449
aS'path892:0:346'
p450
aS'path892:0:345'
p451
aS'path892:0:344'
p452
aS'path892:0:343'
p453
aS'path892:0:342'
p454
aS'path892:0:341'
p455
aS'path892:0:660'
p456
aS'path892:0:618'
p457
aS'path892:0:340'
p458
aS'path892:0:334'
p459
aS'path892:0:493'
p460
aS'path892:0:375'
p461
aS'path892:0:333'
p462
aS'path892:0:374'
p463
aS'path892:0:332'
p464
aS'path892:0:330'
p465
aS'path892:0:329'
p466
aS'path892:0:328'
p467
aS'path892:0:326'
p468
aS'path892:0:642'
p469
aS'path892:0:322'
p470
aS'path892:0:318'
p471
aS'path892:0:506'
p472
aS'path892:0:317'
p473
aS'path892:0:316'
p474
aS'path892:0:315'
p475
aS'path892:0:314'
p476
aS'path892:0:313'
p477
aS'path892:0:312'
p478
aS'path892:0:311'
p479
aS'path892:0:331'
p480
aS'path892:0:310'
p481
aS'path892:0:878'
p482
aS'path892:0:468'
p483
aS'path892:0:308'
p484
aS'path892:0:467'
p485
aS'path892:0:307'
p486
aS'path892:0:486'
p487
aS'path892:0:305'
p488
aS'path892:0:304'
p489
aS'path892:0:303'
p490
aS'path892:0:302'
p491
aS'path892:0:301'
p492
aS'path892:0:760'
p493
aS'path892:0:298'
p494
aS'path892:0:759'
p495
aS'path892:0:381'
p496
aS'path892:0:297'
p497
aS'path892:0:758'
p498
aS'path892:0:380'
p499
aS'path892:0:296'
p500
aS'path892:0:324'
p501
aS'path892:0:295'
p502
aS'path892:0:323'
p503
aS'path892:0:294'
p504
aS'path892:0:293'
p505
aS'path892:0:292'
p506
aS'path892:0:499'
p507
aS'path892:0:289'
p508
aS'path892:0:286'
p509
aS'path892:0:284'
p510
aS'path892:0:282'
p511
aS'path892:0:742'
p512
aS'path892:0:482'
p513
aS'path892:0:280'
p514
aS'path892:0:783'
p515
aS'path892:0:741'
p516
aS'path892:0:279'
p517
aS'path892:0:782'
p518
aS'path892:0:740'
p519
aS'path892:0:291'
p520
aS'path892:0:278'
p521
aS'path892:0:306'
p522
aS'path892:0:277'
p523
aS'path892:0:275'
p524
aS'path892:0:273'
p525
aS'path892:0:272'
p526
aS'path892:0:481'
p527
aS'path892:0:271'
p528
aS'path892:0:682'
p529
aS'path892:0:270'
p530
aS'path892:0:681'
p531
aS'path892:0:269'
p532
aS'path892:0:659'
p533
aS'path892:0:339'
p534
aS'path892:0:268'
p535
aS'path892:0:592'
p536
aS'path892:0:264'
p537
aS'path892:0:263'
p538
aS'path892:0:354'
p539
aS'path892:0:262'
p540
aS'path892:0:492'
p541
aS'path892:0:353'
p542
aS'path892:0:261'
p543
aS'path892:0:722'
p544
aS'path892:0:260'
p545
aS'path892:0:309'
p546
aS'path892:0:259'
p547
aS'path892:0:258'
p548
aS'path892:0:257'
p549
aS'path892:0:696'
p550
aS'path892:0:465'
p551
aS'path892:0:255'
p552
aS'path892:0:464'
p553
aS'path892:0:254'
p554
aS'path892:0:835'
p555
aS'path892:0:714'
p556
aS'path892:0:252'
p557
aS'path892:0:713'
p558
aS'path892:0:474'
p559
aS'path892:0:251'
p560
aS'path892:0:321'
p561
aS'path892:0:250'
p562
aS'path892:0:247'
p563
aS'path892:0:246'
p564
aS'path892:0:245'
p565
aS'path892:0:244'
p566
aS'path892:0:243'
p567
aS'path892:0:242'
p568
aS'path892:0:241'
p569
aS'path892:0:240'
p570
aS'path892:0:239'
p571
aS'path892:0:498'
p572
aS'path892:0:238'
p573
aS'path892:0:649'
p574
aS'path892:0:237'
p575
aS'path892:0:236'
p576
aS'path892:0:235'
p577
aS'path892:0:234'
p578
aS'path892:0:283'
p579
aS'path892:0:233'
p580
aS'path892:0:232'
p581
aS'path892:0:231'
p582
aS'path892:0:230'
p583
aS'path892:0:229'
p584
aS'path892:0:847'
p585
aS'path892:0:227'
p586
aS'path892:0:226'
p587
aS'path892:0:325'
p588
aS'path892:0:225'
p589
aS'path892:0:463'
p590
aS'path892:0:253'
p591
aS'path892:0:224'
p592
aS'path892:0:223'
p593
aS'path892:0:784'
p594
aS'path892:0:222'
p595
aS'path892:0:221'
p596
aS'path892:0:220'
p597
aS'path892:0:781'
p598
aS'path892:0:739'
p599
aS'path892:0:290'
p600
aS'path892:0:219'
p601
aS'path892:0:780'
p602
aS'path892:0:218'
p603
aS'path892:0:663'
p604
aS'path892:0:217'
p605
aS'path892:0:216'
p606
aS'path892:0:496'
p607
aS'path892:0:215'
p608
aS'path892:0:214'
p609
aS'path892:0:213'
p610
aS'path892:0:514'
p611
aS'path892:0:212'
p612
aS'path892:0:513'
p613
aS'path892:0:211'
p614
aS'path892:0:491'
p615
aS'path892:0:352'
p616
aS'path892:0:210'
p617
aS'path892:0:792'
p618
aS'path892:0:490'
p619
aS'path892:0:351'
p620
aS'path892:0:209'
p621
aS'path892:0:791'
p622
aS'path892:0:489'
p623
aS'path892:0:208'
p624
aS'path892:0:790'
p625
aS'path892:0:207'
p626
aS'path892:0:647'
p627
aS'path892:0:206'
p628
aS'path892:0:485'
p629
aS'path892:0:204'
p630
aS'path892:0:203'
p631
aS'path892:0:201'
p632
aS'path892:0:200'
p633
aS'path892:0:567'
p634
aS'path892:0:397'
p635
aS'path892:0:197'
p636
aS'path892:0:196'
p637
aS'path892:0:195'
p638
aS'path892:0:194'
p639
aS'path892:0:193'
p640
aS'path892:0:192'
p641
aS'path892:0:361'
p642
aS'path892:0:191'
p643
aS'path892:0:190'
p644
aS'path892:0:779'
p645
aS'path892:0:477'
p646
aS'path892:0:189'
p647
aS'path892:0:778'
p648
aS'path892:0:476'
p649
aS'path892:0:188'
p650
aS'path892:0:777'
p651
aS'path892:0:475'
p652
aS'path892:0:187'
p653
aS'path892:0:646'
p654
aS'path892:0:205'
p655
aS'path892:0:185'
p656
aS'path892:0:183'
p657
aS'path892:0:699'
p658
aS'path892:0:180'
p659
aS'path892:0:179'
p660
aS'path892:0:178'
p661
aS'path892:0:177'
p662
aS'path892:0:637'
p663
aS'path892:0:176'
p664
aS'path892:0:274'
p665
aS'path892:0:175'
p666
aS'path892:0:202'
p667
aS'path892:0:174'
p668
aS'path892:0:661'
p669
aS'path892:0:173'
p670
aS'path892:0:172'
p671
aS'path892:0:199'
p672
aS'path892:0:171'
p673
aS'path892:0:198'
p674
aS'path892:0:170'
p675
aS'path892:0:629'
p676
aS'path892:0:168'
p677
aS'path892:0:628'
p678
aS'path892:0:167'
p679
aS'path892:0:454'
p680
aS'path892:0:166'
p681
aS'path892:0:285'
p682
aS'path892:0:165'
p683
aS'path892:0:164'
p684
aS'path892:0:184'
p685
aS'path892:0:163'
p686
aS'path892:0:773'
p687
aS'path892:0:162'
p688
aS'path892:0:772'
p689
aS'path892:0:161'
p690
aS'path892:0:771'
p691
aS'path892:0:417'
p692
aS'path892:0:160'
p693
aS'path892:0:749'
p694
aS'path892:0:159'
p695
aS'path892:0:619'
p696
aS'path892:0:158'
p697
aS'path892:0:327'
p698
aS'path892:0:256'
p699
aS'path892:0:186'
p700
aS'path892:0:157'
p701
aS'path892:0:156'
p702
aS'path892:0:155'
p703
aS'path892:0:154'
p704
aS'path892:0:153'
p705
aS'path892:0:152'
p706
aS'path892:0:523'
p707
aS'path892:0:151'
p708
aS'path892:0:753'
p709
aS'path892:0:150'
p710
aS'path892:0:149'
p711
aS'path892:0:148'
p712
aS'path892:0:147'
p713
aS'path892:0:146'
p714
aS'path892:0:910'
p715
aS'path892:0:145'
p716
aS'path892:0:461'
p717
aS'path892:0:144'
p718
aS'path892:0:143'
p719
aS'path892:0:603'
p720
aS'path892:0:142'
p721
aS'path892:0:141'
p722
aS'path892:0:601'
p723
aS'path892:0:140'
p724
aS'path892:0:139'
p725
aS'path892:0:138'
p726
aS'path892:0:137'
p727
aS'path892:0:136'
p728
aS'path892:0:276'
p729
aS'path892:0:135'
p730
aS'path892:0:134'
p731
aS'path892:0:133'
p732
aS'path892:0:336'
p733
aS'path892:0:132'
p734
aS'path892:0:335'
p735
aS'path892:0:131'
p736
aS'path892:0:300'
p737
aS'path892:0:130'
p738
aS'path892:0:299'
p739
aS'path892:0:129'
p740
aS'path892:0:128'
p741
aS'path892:0:908'
p742
aS'path892:0:687'
p743
aS'path892:0:127'
p744
aS'path892:0:807'
p745
aS'path892:0:126'
p746
aS'path892:0:125'
p747
aS'path892:0:747'
p748
aS'path892:0:124'
p749
aS'path892:0:123'
p750
aS'path892:0:472'
p751
aS'path892:0:122'
p752
aS'path892:0:471'
p753
aS'path892:0:121'
p754
aS'path892:0:281'
p755
aS'path892:0:120'
p756
aS'path892:0:119'
p757
aS'path892:0:849'
p758
aS'path892:0:447'
p759
aS'path892:0:118'
p760
aS'path892:0:848'
p761
aS'path892:0:446'
p762
aS'path892:0:228'
p763
aS'path892:0:117'
p764
aS'path892:0:116'
p765
aS'path892:0:115'
p766
aS'path892:0:114'
p767
aS'path892:0:338'
p768
aS'path892:0:267'
p769
aS'path892:0:113'
p770
aS'path892:0:337'
p771
aS'path892:0:266'
p772
aS'path892:0:112'
p773
aS'path892:0:265'
p774
aS'path892:0:111'
p775
aS'path892:0:110'
p776
aS'path892:0:109'
p777
aS'path892:0:108'
p778
aS'path892:0:569'
p779
aS'path892:0:107'
p780
aS'path892:0:819'
p781
aS'path892:0:106'
p782
aS'path892:0:818'
p783
aS'path892:0:105'
p784
aS'path892:0:817'
p785
aS'path892:0:104'
p786
aS'path892:0:320'
p787
aS'path892:0:249'
p788
aS'path892:0:102'
p789
aS'path892:0:100'
p790
aS'path892:0:99'
p791
aS'path892:0:98'
p792
aS'path892:0:97'
p793
aS'path892:0:96'
p794
aS'path892:0:95'
p795
aS'path892:0:94'
p796
aS'path892:0:93'
p797
aS'path892:0:541'
p798
aS'path892:0:92'
p799
aS'path892:0:540'
p800
aS'path892:0:91'
p801
aS'path892:0:539'
p802
aS'path892:0:103'
p803
aS'path892:0:90'
p804
aS'path892:0:89'
p805
aS'path892:0:88'
p806
aS'path892:0:87'
p807
aS'path892:0:86'
p808
aS'path892:0:85'
p809
aS'path892:0:84'
p810
aS'path892:0:83'
p811
aS'path892:0:82'
p812
aS'path892:0:81'
p813
aS'path892:0:80'
p814
aS'path892:0:79'
p815
aS'path892:0:78'
p816
aS'path892:0:77'
p817
aS'path892:0:182'
p818
aS'path892:0:76'
p819
aS'path892:0:181'
p820
aS'path892:0:75'
p821
aS'path892:0:74'
p822
aS'path892:0:73'
p823
aS'path892:0:789'
p824
aS'path892:0:72'
p825
aS'path892:0:71'
p826
aS'path892:0:70'
p827
aS'path892:0:69'
p828
aS'path892:0:68'
p829
aS'path892:0:67'
p830
aS'path892:0:66'
p831
aS'path892:0:65'
p832
aS'path892:0:64'
p833
aS'path892:0:169'
p834
aS'path892:0:63'
p835
aS'path892:0:62'
p836
aS'path892:0:61'
p837
aS'path892:0:60'
p838
aS'path892:0:59'
p839
aS'path892:0:58'
p840
aS'path892:0:57'
p841
aS'path892:0:56'
p842
aS'path892:0:55'
p843
aS'path892:0:557'
p844
aS'path892:0:54'
p845
aS'path892:0:556'
p846
aS'path892:0:53'
p847
aS'path892:0:52'
p848
aS'path892:0:51'
p849
aS'path892:0:50'
p850
aS'path892:0:666'
p851
aS'path892:0:49'
p852
aS'path892:0:665'
p853
aS'path892:0:48'
p854
aS'path892:0:664'
p855
aS'path892:0:47'
p856
aS'path892:0:46'
p857
aS'path892:0:45'
p858
aS'path892:0:44'
p859
aS'path892:0:319'
p860
aS'path892:0:248'
p861
aS'path892:0:101'
p862
aS'path892:0:43'
p863
aS'path892:0:42'
p864
aS'path892:0:41'
p865
aS'path892:0:40'
p866
aS'path892:0:39'
p867
aS'path892:0:38'
p868
aS'path892:0:37'
p869
aS'path892:0:36'
p870
aS'path892:0:35'
p871
aS'path892:0:34'
p872
aS'path892:0:725'
p873
aS'path892:0:33'
p874
aS'path892:0:32'
p875
aS'path892:0:31'
p876
aS'path892:0:801'
p877
aS'path892:0:30'
p878
aS'path892:0:29'
p879
aS'path892:0:28'
p880
aS'path892:0:27'
p881
aS'path892:0:422'
p882
aS'path892:0:26'
p883
aS'path892:0:25'
p884
aS'path892:0:24'
p885
aS'path892:0:23'
p886
aS'path892:0:509'
p887
aS'path892:0:22'
p888
aS'path892:0:508'
p889
aS'path892:0:21'
p890
aS'path892:0:507'
p891
aS'path892:0:20'
p892
aS'path892:0:19'
p893
aS'path892:0:18'
p894
aS'path892:0:17'
p895
aS'path892:0:16'
p896
aS'path892:0:15'
p897
aS'path892:0:14'
p898
aS'path892:0:13'
p899
aS'path892:0:372'
p900
aS'path892:0:288'
p901
aS'path892:0:12'
p902
aS'path892:0:371'
p903
aS'path892:0:287'
p904
aS'path892:0:11'
p905
aS'path892:0:10'
p906
aS'path892:0:9'
p907
aS'path892:0:8'
p908
aS'path892:0:7'
p909
aS'path892:0:6'
p910
aS'path892:0:5'
p911
aS'path892:0:4'
p912
aS'path892:0:3'
p913
aS'path892:0:2'
p914
aS'path892:0:1'
p915
aS'path892:0:0'
p916
asS'autoflatten'
p917
I00
sS'filetype'
p918
S'kicad_module'
p919
sS'ids'
p920
(lp921
S'path892'
p922
asS'crop'
p923
I00
sS'debug'
p924
I00
sS'openkicad'
p925
I00
sS'openfactory'
p926
I00
sS'threshold'
p927
F128.0
sS'path'
p928
S'/home/greynaga/Github/Varios/Regla-Leds/Charly_Plex_6_Leds_Moon/Reverse_Mount_Leds.pretty'
p929
sS'dpi'
p930
F1200.0
sb.