(ioptparse
Values
p0
(dp1
S'selected_nodes'
p2
(lp3
S'path938:1:25'
p4
aS'path938:1:33'
p5
aS'path938:1:41'
p6
aS'path938:1:29'
p7
aS'path938:1:37'
p8
aS'path938:1:27'
p9
aS'path938:1:31'
p10
aS'path938:1:35'
p11
aS'path938:1:39'
p12
aS'path938:1:26'
p13
aS'path938:1:28'
p14
aS'path938:1:30'
p15
aS'path938:1:32'
p16
aS'path938:1:34'
p17
aS'path938:1:36'
p18
aS'path938:1:38'
p19
aS'path938:1:40'
p20
asS'autoflatten'
p21
I00
sS'filetype'
p22
S'kicad_module'
p23
sS'ids'
p24
(lp25
S'path938'
p26
asS'crop'
p27
I00
sS'debug'
p28
I00
sS'openkicad'
p29
I00
sS'openfactory'
p30
I00
sS'threshold'
p31
F128.0
sS'path'
p32
S'/home/greynaga/Github/Varios/StarTrek/Insignia_Original/001/StarTrek_original.pretty'
p33
sS'dpi'
p34
F1200.0
sb.