(ioptparse
Values
p0
(dp1
S'selected_nodes'
p2
(lp3
sS'autoflatten'
p4
I00
sS'filetype'
p5
S'kicad_module'
p6
sS'ids'
p7
(lp8
S'path1242'
p9
aS'path1244'
p10
aS'path1246'
p11
aS'path1248'
p12
asS'crop'
p13
I00
sS'debug'
p14
I00
sS'openkicad'
p15
I00
sS'openfactory'
p16
I00
sS'threshold'
p17
F128.0
sS'path'
p18
S'/home/greynaga/Github/Varios/Hackademy_Badge/Hackademy/Hackademy.pretty'
p19
sS'dpi'
p20
F1200.0
sb.